; Function Attrs: mustprogress nofree norecurse nosync nounwind willreturn memory(read, argmem: readwrite, inaccessiblemem: none) uwtable
define void @_ZN2cv4gapi5fluid4View4Priv5resetEi(ptr noundef nonnull align 8 captures(none) dereferenceable(108) initializes((96, 104)) %0, i32 noundef %1) local_unnamed_addr #13 align 2 {
  %3 = getelementptr inbounds nuw i8, ptr %0, i64 100
  store i32 %1, ptr %3, align 4, !tbaa !85
  %4 = getelementptr inbounds nuw i8, ptr %0, i64 88
  %5 = load ptr, ptr %4, align 8, !tbaa !88
  %6 = load ptr, ptr %5, align 8, !tbaa !89
  %7 = getelementptr inbounds nuw i8, ptr %6, i64 168
  %8 = load i32, ptr %7, align 8, !tbaa !91
  %9 = getelementptr inbounds nuw i8, ptr %0, i64 96
  store i32 %8, ptr %9, align 8, !tbaa !109
  ret void
}